; Function Attrs: nofree norecurse nosync nounwind memory(argmem: readwrite) uwtable
define dso_local noundef ptr @sq_dequote_step(ptr noundef %0, ptr noundef writeonly %1) local_unnamed_addr #7 {
  %3 = load i8, ptr %0, align 1, !tbaa !13
  %.not = icmp eq i8 %3, 39
  br i1 %.not, label %.preheader, label %.loopexit

.preheader:                                       ; preds = %2, %.backedge
  %.024 = phi ptr [ %.024.be, %.backedge ], [ %0, %2 ]
  %.023 = phi ptr [ %.023.be, %.backedge ], [ %0, %2 ]
  %4 = getelementptr inbounds nuw i8, ptr %.023, i64 1
  %5 = load i8, ptr %4, align 1, !tbaa !13
  switch i8 %5, label %.backedge [
    i8 0, label %.loopexit
    i8 39, label %6
  ]

.backedge:                                        ; preds = %13, %.preheader
  %storemerge = phi i8 [ %5, %.preheader ], [ %12, %13 ]
  %.023.be = phi ptr [ %4, %.preheader ], [ %14, %13 ]
  %.024.be = getelementptr inbounds nuw i8, ptr %.024, i64 1
  store i8 %storemerge, ptr %.024, align 1, !tbaa !13
  br label %.preheader

6:                                                ; preds = %.preheader
  %7 = getelementptr inbounds nuw i8, ptr %.023, i64 2
  %8 = load i8, ptr %7, align 1, !tbaa !13
  switch i8 %8, label %17 [
    i8 0, label %9
    i8 92, label %10
  ]

9:                                                ; preds = %6
  store i8 0, ptr %.024, align 1, !tbaa !13
  %.not30 = icmp eq ptr %1, null
  br i1 %.not30, label %.loopexit, label %.loopexit.sink.split

10:                                               ; preds = %6
  %11 = getelementptr inbounds nuw i8, ptr %.023, i64 3
  %12 = load i8, ptr %11, align 1, !tbaa !13
  switch i8 %12, label %17 [
    i8 39, label %13
    i8 33, label %13
  ]

13:                                               ; preds = %10, %10
  %14 = getelementptr inbounds nuw i8, ptr %.023, i64 4
  %15 = load i8, ptr %14, align 1, !tbaa !13
  %16 = icmp eq i8 %15, 39
  br i1 %16, label %.backedge, label %17

17:                                               ; preds = %10, %13, %6
  %.not31 = icmp eq ptr %1, null
  br i1 %.not31, label %.loopexit, label %18

18:                                               ; preds = %17
  %19 = getelementptr inbounds nuw i8, ptr %.023, i64 2
  store i8 0, ptr %.024, align 1, !tbaa !13
  br label %.loopexit.sink.split

.loopexit.sink.split:                             ; preds = %9, %18
  %.sink = phi ptr [ %19, %18 ], [ null, %9 ]
  store ptr %.sink, ptr %1, align 8, !tbaa !17
  br label %.loopexit

.loopexit:                                        ; preds = %.preheader, %.loopexit.sink.split, %17, %9, %2
  %.0 = phi ptr [ null, %2 ], [ %0, %9 ], [ null, %17 ], [ %0, %.loopexit.sink.split ], [ null, %.preheader ]
  ret ptr %.0
}